(dp1
S'pais_id'
p2
(dp3
S'length'
p4
I512
sS'unique'
p5
I00
sS'sortable'
p6
I4
sS'sql'
p7
S'INTEGER REFERENCES pais (id) ON DELETE CASCADE'
p8
sS'notnull'
p9
I00
sS'type'
p10
S'reference pais'
p11
ssS'nombre'
p12
(dp13
g4
I128
sg5
I00
sg6
I3
sg7
S'CHAR(128)'
p14
sg9
I00
sg10
S'string'
p15
ssS'clave_interna'
p16
(dp17
g4
I2
sg5
I00
sg6
I2
sg7
S'CHAR(2)'
p18
sg9
I00
sg10
g15
ssS'id'
p19
(dp20
g4
I512
sg5
I00
sg6
I1
sg7
S'INTEGER PRIMARY KEY AUTOINCREMENT'
p21
sg9
I00
sg10
g19
ss.