(dp1
S'nombre'
p2
(dp3
S'length'
p4
I128
sS'unique'
p5
I00
sS'sortable'
p6
I3
sS'sql'
p7
S'CHAR(128)'
p8
sS'notnull'
p9
I00
sS'type'
p10
S'string'
p11
ssS'estado_id'
p12
(dp13
g4
I512
sg5
I00
sg6
I4
sg7
S'INTEGER REFERENCES estado (id) ON DELETE CASCADE'
p14
sg9
I00
sg10
S'reference estado'
p15
ssS'clave_interna'
p16
(dp17
g4
I3
sg5
I00
sg6
I2
sg7
S'CHAR(3)'
p18
sg9
I00
sg10
g11
ssS'id'
p19
(dp20
g4
I512
sg5
I00
sg6
I1
sg7
S'INTEGER PRIMARY KEY AUTOINCREMENT'
p21
sg9
I00
sg10
g19
ss.